target datalayout = "e-m:e-p270:32:32-p271:32:32-p272:64:64-i64:64-i128:128-f80:128-n8:16:32:64-S128"
target triple = "x86_64-pc-linux-gnu"

%struct.archive_entry = type { ptr, ptr, i32, %struct.aest, i32, %struct.archive_mstring, i64, i64, %struct.archive_mstring, %struct.archive_mstring, %struct.archive_mstring, %struct.archive_mstring, %struct.archive_mstring, i8, ptr, i64, %struct.ae_digest, %struct.archive_acl, ptr, ptr, ptr, ptr, ptr, [12 x i8], i32 }
%struct.aest = type { i64, i32, i64, i32, i64, i32, i64, i32, i64, i64, i32, i64, i64, i32, i64, i64, i64, i32, i64, i64, i64 }
%struct.archive_mstring = type { %struct.archive_string, %struct.archive_string, %struct.archive_wstring, %struct.archive_string, i32 }
%struct.archive_wstring = type { ptr, i64, i64 }
%struct.archive_string = type { ptr, i64, i64 }
%struct.ae_digest = type { [16 x i8], [20 x i8], [20 x i8], [32 x i8], [48 x i8], [64 x i8] }
%struct.archive_acl = type { i32, ptr, ptr, i32, ptr, ptr, i32 }

; Function Attrs: nounwind uwtable
define dso_local i32 @_archive_entry_copy_symlink_l(ptr noundef %0, ptr noundef %1, i64 noundef %2, ptr noundef %3) #0 {
  %5 = alloca i32, align 4
  %6 = alloca ptr, align 8
  %7 = alloca ptr, align 8
  %8 = alloca i64, align 8
  %9 = alloca ptr, align 8
  %10 = alloca i32, align 4
  %11 = alloca i32, align 4
  store ptr %0, ptr %6, align 8, !tbaa !4
  store ptr %1, ptr %7, align 8, !tbaa !67
  store i64 %2, ptr %8, align 8, !tbaa !27
  store ptr %3, ptr %9, align 8, !tbaa !82
  call void @llvm.lifetime.start.p0(i64 4, ptr %10) #13
  %12 = load ptr, ptr %7, align 8, !tbaa !67
  %13 = icmp eq ptr %12, null
  br i1 %13, label %14, label %21

14:                                               ; preds = %4
  %15 = load ptr, ptr %6, align 8, !tbaa !4
  %16 = getelementptr inbounds nuw %struct.archive_entry, ptr %15, i32 0, i32 4
  %17 = load i32, ptr %16, align 8, !tbaa !35
  %18 = and i32 %17, 1
  %19 = icmp ne i32 %18, 0
  br i1 %19, label %20, label %21

20:                                               ; preds = %14
  store i32 0, ptr %5, align 4
  store i32 1, ptr %11, align 4
  br label %49

21:                                               ; preds = %14, %4
  %22 = load ptr, ptr %6, align 8, !tbaa !4
  %23 = getelementptr inbounds nuw %struct.archive_entry, ptr %22, i32 0, i32 4
  %24 = load i32, ptr %23, align 8, !tbaa !35
  %25 = and i32 %24, -2
  store i32 %25, ptr %23, align 8, !tbaa !35
  %26 = load ptr, ptr %6, align 8, !tbaa !4
  %27 = getelementptr inbounds nuw %struct.archive_entry, ptr %26, i32 0, i32 9
  %28 = load ptr, ptr %7, align 8, !tbaa !67
  %29 = load i64, ptr %8, align 8, !tbaa !27
  %30 = load ptr, ptr %9, align 8, !tbaa !82
  %31 = call i32 @archive_mstring_copy_mbs_len_l(ptr noundef %27, ptr noundef %28, i64 noundef %29, ptr noundef %30)
  store i32 %31, ptr %10, align 4, !tbaa !32
  %32 = load ptr, ptr %7, align 8, !tbaa !67
  %33 = icmp eq ptr %32, null
  br i1 %33, label %37, label %34

34:                                               ; preds = %21
  %35 = load i32, ptr %10, align 4, !tbaa !32
  %36 = icmp ne i32 %35, 0
  br i1 %36, label %37, label %42

37:                                               ; preds = %34, %21
  %38 = load ptr, ptr %6, align 8, !tbaa !4
  %39 = getelementptr inbounds nuw %struct.archive_entry, ptr %38, i32 0, i32 4
  %40 = load i32, ptr %39, align 8, !tbaa !35
  %41 = and i32 %40, -3
  store i32 %41, ptr %39, align 8, !tbaa !35
  br label %47

42:                                               ; preds = %34
  %43 = load ptr, ptr %6, align 8, !tbaa !4
  %44 = getelementptr inbounds nuw %struct.archive_entry, ptr %43, i32 0, i32 4
  %45 = load i32, ptr %44, align 8, !tbaa !35
  %46 = or i32 %45, 2
  store i32 %46, ptr %44, align 8, !tbaa !35
  br label %47

47:                                               ; preds = %42, %37
  %48 = load i32, ptr %10, align 4, !tbaa !32
  store i32 %48, ptr %5, align 4
  store i32 1, ptr %11, align 4
  br label %49

49:                                               ; preds = %47, %20
  call void @llvm.lifetime.end.p0(i64 4, ptr %10) #13
  %50 = load i32, ptr %5, align 4
  ret i32 %50
}